target datalayout = "e-m:e-p270:32:32-p271:32:32-p272:64:64-i64:64-i128:128-f80:128-n8:16:32:64-S128"
target triple = "x86_64-pc-linux-gnu"

%struct.AVRational = type { i32, i32 }
%struct.AVPacket = type { ptr, i64, i64, ptr, i32, i32, i32, ptr, i32, i64, i64, ptr, ptr, %struct.AVRational }

@start_sequence = internal constant [4 x i8] c"\00\00\00\01", align 1

; Function Attrs: nounwind uwtable
define i32 @ff_h264_handle_frag_packet(ptr noundef %0, ptr noundef %1, i32 noundef %2, i32 noundef %3, ptr noundef %4, i32 noundef %5) #0 {
  %7 = alloca i32, align 4
  %8 = alloca ptr, align 8
  %9 = alloca ptr, align 8
  %10 = alloca i32, align 4
  %11 = alloca i32, align 4
  %12 = alloca ptr, align 8
  %13 = alloca i32, align 4
  %14 = alloca i32, align 4
  %15 = alloca i32, align 4
  %16 = alloca i32, align 4
  %17 = alloca i32, align 4
  store ptr %0, ptr %8, align 8, !tbaa !37
  store ptr %1, ptr %9, align 8, !tbaa !14
  store i32 %2, ptr %10, align 4, !tbaa !19
  store i32 %3, ptr %11, align 4, !tbaa !19
  store ptr %4, ptr %12, align 8, !tbaa !14
  store i32 %5, ptr %13, align 4, !tbaa !19
  call void @llvm.lifetime.start.p0(i64 4, ptr %14) #9
  call void @llvm.lifetime.start.p0(i64 4, ptr %15) #9
  %18 = load i32, ptr %10, align 4, !tbaa !19
  store i32 %18, ptr %15, align 4, !tbaa !19
  call void @llvm.lifetime.start.p0(i64 4, ptr %16) #9
  store i32 0, ptr %16, align 4, !tbaa !19
  %19 = load i32, ptr %11, align 4, !tbaa !19
  %20 = icmp ne i32 %19, 0
  br i1 %20, label %21, label %29

21:                                               ; preds = %6
  %22 = load i32, ptr %13, align 4, !tbaa !19
  %23 = sext i32 %22 to i64
  %24 = add i64 4, %23
  %25 = load i32, ptr %15, align 4, !tbaa !19
  %26 = sext i32 %25 to i64
  %27 = add i64 %26, %24
  %28 = trunc i64 %27 to i32
  store i32 %28, ptr %15, align 4, !tbaa !19
  br label %29

29:                                               ; preds = %21, %6
  %30 = load ptr, ptr %8, align 8, !tbaa !37
  %31 = load i32, ptr %15, align 4, !tbaa !19
  %32 = call i32 @av_new_packet(ptr noundef %30, i32 noundef %31)
  store i32 %32, ptr %14, align 4, !tbaa !19
  %33 = icmp slt i32 %32, 0
  br i1 %33, label %34, label %36

34:                                               ; preds = %29
  %35 = load i32, ptr %14, align 4, !tbaa !19
  store i32 %35, ptr %7, align 4
  store i32 1, ptr %17, align 4
  br label %72

36:                                               ; preds = %29
  %37 = load i32, ptr %11, align 4, !tbaa !19
  %38 = icmp ne i32 %37, 0
  br i1 %38, label %39, label %62

39:                                               ; preds = %36
  %40 = load ptr, ptr %8, align 8, !tbaa !37
  %41 = getelementptr inbounds nuw %struct.AVPacket, ptr %40, i32 0, i32 3
  %42 = load ptr, ptr %41, align 8, !tbaa !42
  %43 = load i32, ptr %16, align 4, !tbaa !19
  %44 = sext i32 %43 to i64
  %45 = getelementptr inbounds i8, ptr %42, i64 %44
  call void @llvm.memcpy.p0.p0.i64(ptr align 1 %45, ptr align 1 @start_sequence, i64 4, i1 false)
  %46 = load i32, ptr %16, align 4, !tbaa !19
  %47 = sext i32 %46 to i64
  %48 = add i64 %47, 4
  %49 = trunc i64 %48 to i32
  store i32 %49, ptr %16, align 4, !tbaa !19
  %50 = load ptr, ptr %8, align 8, !tbaa !37
  %51 = getelementptr inbounds nuw %struct.AVPacket, ptr %50, i32 0, i32 3
  %52 = load ptr, ptr %51, align 8, !tbaa !42
  %53 = load i32, ptr %16, align 4, !tbaa !19
  %54 = sext i32 %53 to i64
  %55 = getelementptr inbounds i8, ptr %52, i64 %54
  %56 = load ptr, ptr %12, align 8, !tbaa !14
  %57 = load i32, ptr %13, align 4, !tbaa !19
  %58 = sext i32 %57 to i64
  call void @llvm.memcpy.p0.p0.i64(ptr align 1 %55, ptr align 1 %56, i64 %58, i1 false)
  %59 = load i32, ptr %13, align 4, !tbaa !19
  %60 = load i32, ptr %16, align 4, !tbaa !19
  %61 = add nsw i32 %60, %59
  store i32 %61, ptr %16, align 4, !tbaa !19
  br label %62

62:                                               ; preds = %39, %36
  %63 = load ptr, ptr %8, align 8, !tbaa !37
  %64 = getelementptr inbounds nuw %struct.AVPacket, ptr %63, i32 0, i32 3
  %65 = load ptr, ptr %64, align 8, !tbaa !42
  %66 = load i32, ptr %16, align 4, !tbaa !19
  %67 = sext i32 %66 to i64
  %68 = getelementptr inbounds i8, ptr %65, i64 %67
  %69 = load ptr, ptr %9, align 8, !tbaa !14
  %70 = load i32, ptr %10, align 4, !tbaa !19
  %71 = sext i32 %70 to i64
  call void @llvm.memcpy.p0.p0.i64(ptr align 1 %68, ptr align 1 %69, i64 %71, i1 false)
  store i32 0, ptr %7, align 4
  store i32 1, ptr %17, align 4
  br label %72

72:                                               ; preds = %62, %34
  call void @llvm.lifetime.end.p0(i64 4, ptr %16) #9
  call void @llvm.lifetime.end.p0(i64 4, ptr %15) #9
  call void @llvm.lifetime.end.p0(i64 4, ptr %14) #9
  %73 = load i32, ptr %7, align 4
  ret i32 %73
}