; Function Attrs: nounwind uwtable
define range(i32 -2147483648, 1) i32 @ff_h264_handle_frag_packet(ptr noundef %0, ptr noundef readonly captures(none) %1, i32 noundef %2, i32 noundef %3, ptr noundef readonly captures(none) %4, i32 noundef %5) local_unnamed_addr #0 {
  %.not = icmp eq i32 %3, 0
  %7 = add i32 %5, 4
  %8 = select i1 %.not, i32 0, i32 %7
  %.021 = add i32 %8, %2
  %9 = tail call i32 @av_new_packet(ptr noundef %0, i32 noundef %.021) #10
  %10 = icmp slt i32 %9, 0
  br i1 %10, label %24, label %11

11:                                               ; preds = %6
  br i1 %.not, label %19, label %12

12:                                               ; preds = %11
  %13 = getelementptr inbounds nuw i8, ptr %0, i64 24
  %14 = load ptr, ptr %13, align 8, !tbaa !26
  store i32 16777216, ptr %14, align 1
  %15 = load ptr, ptr %13, align 8, !tbaa !26
  %16 = getelementptr inbounds nuw i8, ptr %15, i64 4
  %17 = sext i32 %5 to i64
  tail call void @llvm.memcpy.p0.p0.i64(ptr nonnull align 1 %16, ptr align 1 %4, i64 %17, i1 false)
  %18 = sext i32 %7 to i64
  br label %19

19:                                               ; preds = %12, %11
  %.0 = phi i64 [ %18, %12 ], [ 0, %11 ]
  %20 = getelementptr inbounds nuw i8, ptr %0, i64 24
  %21 = load ptr, ptr %20, align 8, !tbaa !26
  %22 = getelementptr inbounds i8, ptr %21, i64 %.0
  %23 = sext i32 %2 to i64
  tail call void @llvm.memcpy.p0.p0.i64(ptr align 1 %22, ptr align 1 %1, i64 %23, i1 false)
  br label %24

24:                                               ; preds = %6, %19
  %.022 = phi i32 [ 0, %19 ], [ %9, %6 ]
  ret i32 %.022
}